target datalayout = "e-m:e-p270:32:32-p271:32:32-p272:64:64-i64:64-i128:128-f80:128-n8:16:32:64-S128"
target triple = "x86_64-pc-linux-gnu"

%"class.std::__1::promise" = type { ptr }

; Function Attrs: mustprogress uwtable
define dso_local void @_ZNSt3__17promiseIvE24set_value_at_thread_exitEv(ptr noundef nonnull align 8 dereferenceable(8) %0) #1 align 2 {
  %2 = alloca ptr, align 8
  store ptr %0, ptr %2, align 8, !tbaa !66
  %3 = load ptr, ptr %2, align 8
  %4 = getelementptr inbounds nuw %"class.std::__1::promise", ptr %3, i32 0, i32 0
  %5 = load ptr, ptr %4, align 8, !tbaa !68
  %6 = icmp eq ptr %5, null
  br i1 %6, label %7, label %8

7:                                                ; preds = %1
  call void @_ZNSt3__120__throw_future_errorB8ne210000ENS_11future_errcE(i32 noundef 3) #18
  unreachable

8:                                                ; preds = %1
  %9 = getelementptr inbounds nuw %"class.std::__1::promise", ptr %3, i32 0, i32 0
  %10 = load ptr, ptr %9, align 8, !tbaa !68
  call void @_ZNSt3__117__assoc_sub_state24set_value_at_thread_exitEv(ptr noundef nonnull align 8 dereferenceable(116) %10)
  ret void
}