; Function Attrs: mustprogress uwtable
define dso_local void @_ZNSt3__17promiseIvE24set_value_at_thread_exitEv(ptr noundef nonnull readonly align 8 captures(none) dereferenceable(8) %0) local_unnamed_addr #1 align 2 {
  %2 = load ptr, ptr %0, align 8, !tbaa !39
  %3 = icmp eq ptr %2, null
  br i1 %3, label %4, label %5

4:                                                ; preds = %1
  tail call void @_ZNSt3__120__throw_future_errorB8ne210000ENS_11future_errcE(i32 noundef 3) #23
  unreachable

5:                                                ; preds = %1
  tail call void @_ZNSt3__117__assoc_sub_state24set_value_at_thread_exitEv(ptr noundef nonnull align 8 dereferenceable(116) %2)
  ret void
}